target datalayout = "e-m:e-p270:32:32-p271:32:32-p272:64:64-i64:64-i128:128-f80:128-n8:16:32:64-S128"
target triple = "x86_64-pc-linux-gnu"

%"class.std::__cxx11::basic_string" = type { %"struct.std::__cxx11::basic_string<char>::_Alloc_hider", i64, %union.anon }
%"struct.std::__cxx11::basic_string<char>::_Alloc_hider" = type { ptr }
%union.anon = type { i64, [8 x i8] }
%"struct.faiss::IndexNNDescent" = type { %"struct.faiss::Index.base", %"struct.faiss::NNDescent", i8, ptr }
%"struct.faiss::Index.base" = type <{ ptr, i32, [4 x i8], i64, i8, i8, [2 x i8], i32, float }>
%"struct.faiss::NNDescent" = type { i8, i32, i32, i32, i32, i32, i32, i32, i32, i32, %"class.std::vector", %"class.std::vector.0" }
%"class.std::vector" = type { %"struct.std::_Vector_base" }
%"struct.std::_Vector_base" = type { %"struct.std::_Vector_base<faiss::nndescent::Nhood, std::allocator<faiss::nndescent::Nhood>>::_Vector_impl" }
%"struct.std::_Vector_base<faiss::nndescent::Nhood, std::allocator<faiss::nndescent::Nhood>>::_Vector_impl" = type { %"struct.std::_Vector_base<faiss::nndescent::Nhood, std::allocator<faiss::nndescent::Nhood>>::_Vector_impl_data" }
%"struct.std::_Vector_base<faiss::nndescent::Nhood, std::allocator<faiss::nndescent::Nhood>>::_Vector_impl_data" = type { ptr, ptr, ptr }
%"class.std::vector.0" = type { %"struct.std::_Vector_base.1" }
%"struct.std::_Vector_base.1" = type { %"struct.std::_Vector_base<int, std::allocator<int>>::_Vector_impl" }
%"struct.std::_Vector_base<int, std::allocator<int>>::_Vector_impl" = type { %"struct.std::_Vector_base<int, std::allocator<int>>::_Vector_impl_data" }
%"struct.std::_Vector_base<int, std::allocator<int>>::_Vector_impl_data" = type { ptr, ptr, ptr }
%"struct.faiss::Index" = type <{ ptr, i32, [4 x i8], i64, i8, i8, [2 x i8], i32, float, [4 x i8] }>

@.str = private unnamed_addr constant [99 x i8] c"Error: '%s' failed: Please use IndexNNDescentFlat (or variants) instead of IndexNNDescent directly\00", align 1
@.str.1 = private unnamed_addr constant [8 x i8] c"storage\00", align 1
@__PRETTY_FUNCTION__._ZN5faiss14IndexNNDescent5trainElPKf = private unnamed_addr constant [64 x i8] c"virtual void faiss::IndexNNDescent::train(idx_t, const float *)\00", align 1
@.str.2 = private unnamed_addr constant [114 x i8] c"generated/home/dtcxzyw/WorkSpace/Projects/compilers/llvm-opt-benchmark/bench/faiss/faiss/faiss/IndexNNDescent.cpp\00", align 1
@_ZTIN5faiss14FaissExceptionE = external constant ptr

; Function Attrs: mustprogress uwtable
define void @_ZN5faiss14IndexNNDescent5trainElPKf(ptr noundef nonnull align 8 dereferenceable(144) %0, i64 noundef %1, ptr noundef %2) unnamed_addr #1 align 2 personality ptr @__gxx_personality_v0 {
  %4 = alloca ptr, align 8
  %5 = alloca i64, align 8
  %6 = alloca ptr, align 8
  %7 = alloca %"class.std::__cxx11::basic_string", align 8
  %8 = alloca i32, align 4
  %9 = alloca ptr, align 8
  %10 = alloca i32, align 4
  store ptr %0, ptr %4, align 8
  store i64 %1, ptr %5, align 8
  store ptr %2, ptr %6, align 8
  %11 = load ptr, ptr %4, align 8
  br label %12

12:                                               ; preds = %3
  %13 = getelementptr inbounds %"struct.faiss::IndexNNDescent", ptr %11, i32 0, i32 3
  %14 = load ptr, ptr %13, align 8
  %15 = icmp ne ptr %14, null
  br i1 %15, label %39, label %16

16:                                               ; preds = %12
  br label %17

17:                                               ; preds = %16
  call void @_ZNSt7__cxx1112basic_stringIcSt11char_traitsIcESaIcEEC1Ev(ptr noundef nonnull align 8 dereferenceable(32) %7) #7
  %18 = call i32 (ptr, i64, ptr, ...) @snprintf(ptr noundef null, i64 noundef 0, ptr noundef @.str, ptr noundef @.str.1) #7
  store i32 %18, ptr %8, align 4
  %19 = load i32, ptr %8, align 4
  %20 = add nsw i32 %19, 1
  %21 = sext i32 %20 to i64
  invoke void @_ZNSt7__cxx1112basic_stringIcSt11char_traitsIcESaIcEE6resizeEm(ptr noundef nonnull align 8 dereferenceable(32) %7, i64 noundef %21)
          to label %22 unwind label %29

22:                                               ; preds = %17
  %23 = invoke noundef nonnull align 1 dereferenceable(1) ptr @_ZNSt7__cxx1112basic_stringIcSt11char_traitsIcESaIcEEixEm(ptr noundef nonnull align 8 dereferenceable(32) %7, i64 noundef 0)
          to label %24 unwind label %29

24:                                               ; preds = %22
  %25 = call noundef i64 @_ZNKSt7__cxx1112basic_stringIcSt11char_traitsIcESaIcEE4sizeEv(ptr noundef nonnull align 8 dereferenceable(32) %7) #7
  %26 = call i32 (ptr, i64, ptr, ...) @snprintf(ptr noundef %23, i64 noundef %25, ptr noundef @.str, ptr noundef @.str.1) #7
  %27 = call ptr @__cxa_allocate_exception(i64 40) #7
  invoke void @_ZN5faiss14FaissExceptionC1ERKNSt7__cxx1112basic_stringIcSt11char_traitsIcESaIcEEEPKcSA_i(ptr noundef nonnull align 8 dereferenceable(40) %27, ptr noundef nonnull align 8 dereferenceable(32) %7, ptr noundef @__PRETTY_FUNCTION__._ZN5faiss14IndexNNDescent5trainElPKf, ptr noundef @.str.2, i32 noundef 126)
          to label %28 unwind label %33

28:                                               ; preds = %24
  invoke void @__cxa_throw(ptr %27, ptr @_ZTIN5faiss14FaissExceptionE, ptr @_ZN5faiss14FaissExceptionD2Ev) #14
          to label %54 unwind label %29

29:                                               ; preds = %28, %22, %17
  %30 = landingpad { ptr, i32 }
          cleanup
  %31 = extractvalue { ptr, i32 } %30, 0
  store ptr %31, ptr %9, align 8
  %32 = extractvalue { ptr, i32 } %30, 1
  store i32 %32, ptr %10, align 4
  br label %37

33:                                               ; preds = %24
  %34 = landingpad { ptr, i32 }
          cleanup
  %35 = extractvalue { ptr, i32 } %34, 0
  store ptr %35, ptr %9, align 8
  %36 = extractvalue { ptr, i32 } %34, 1
  store i32 %36, ptr %10, align 4
  call void @__cxa_free_exception(ptr %27) #7
  br label %37

37:                                               ; preds = %33, %29
  call void @_ZNSt7__cxx1112basic_stringIcSt11char_traitsIcESaIcEED1Ev(ptr noundef nonnull align 8 dereferenceable(32) %7) #7
  br label %49

38:                                               ; No predecessors!
  br label %39

39:                                               ; preds = %38, %12
  br label %40

40:                                               ; preds = %39
  %41 = getelementptr inbounds %"struct.faiss::IndexNNDescent", ptr %11, i32 0, i32 3
  %42 = load ptr, ptr %41, align 8
  %43 = load i64, ptr %5, align 8
  %44 = load ptr, ptr %6, align 8
  %45 = load ptr, ptr %42, align 8
  %46 = getelementptr inbounds ptr, ptr %45, i64 2
  %47 = load ptr, ptr %46, align 8
  call void %47(ptr noundef nonnull align 8 dereferenceable(36) %42, i64 noundef %43, ptr noundef %44)
  %48 = getelementptr inbounds %"struct.faiss::Index", ptr %11, i32 0, i32 5
  store i8 1, ptr %48, align 1
  ret void

49:                                               ; preds = %37
  %50 = load ptr, ptr %9, align 8
  %51 = load i32, ptr %10, align 4
  %52 = insertvalue { ptr, i32 } poison, ptr %50, 0
  %53 = insertvalue { ptr, i32 } %52, i32 %51, 1
  resume { ptr, i32 } %53

54:                                               ; preds = %28
  unreachable
}