; Function Attrs: mustprogress uwtable
define void @_ZN5faiss14IndexNNDescent5trainElPKf(ptr nocapture noundef nonnull align 8 dereferenceable(144) %0, i64 noundef %1, ptr noundef %2) unnamed_addr #1 align 2 personality ptr @__gxx_personality_v0 {
  %4 = alloca %"class.std::__cxx11::basic_string", align 8
  %5 = getelementptr inbounds i8, ptr %0, i64 136
  %6 = load ptr, ptr %5, align 8
  %.not = icmp eq ptr %6, null
  br i1 %.not, label %7, label %23

7:                                                ; preds = %3
  call void @_ZNSt7__cxx1112basic_stringIcSt11char_traitsIcESaIcEEC1Ev(ptr noundef nonnull align 8 dereferenceable(32) %4) #8
  %8 = call i32 (ptr, i64, ptr, ...) @snprintf(ptr noundef null, i64 noundef 0, ptr noundef nonnull @.str, ptr noundef nonnull @.str.1) #8
  %9 = add nsw i32 %8, 1
  %10 = sext i32 %9 to i64
  invoke void @_ZNSt7__cxx1112basic_stringIcSt11char_traitsIcESaIcEE6resizeEm(ptr noundef nonnull align 8 dereferenceable(32) %4, i64 noundef %10)
          to label %11 unwind label %18

11:                                               ; preds = %7
  %12 = invoke noundef nonnull align 1 dereferenceable(1) ptr @_ZNSt7__cxx1112basic_stringIcSt11char_traitsIcESaIcEEixEm(ptr noundef nonnull align 8 dereferenceable(32) %4, i64 noundef 0)
          to label %13 unwind label %18

13:                                               ; preds = %11
  %14 = call noundef i64 @_ZNKSt7__cxx1112basic_stringIcSt11char_traitsIcESaIcEE4sizeEv(ptr noundef nonnull align 8 dereferenceable(32) %4) #8
  %15 = call i32 (ptr, i64, ptr, ...) @snprintf(ptr noundef nonnull %12, i64 noundef %14, ptr noundef nonnull @.str, ptr noundef nonnull @.str.1) #8
  %16 = call ptr @__cxa_allocate_exception(i64 40) #8
  invoke void @_ZN5faiss14FaissExceptionC1ERKNSt7__cxx1112basic_stringIcSt11char_traitsIcESaIcEEEPKcSA_i(ptr noundef nonnull align 8 dereferenceable(40) %16, ptr noundef nonnull align 8 dereferenceable(32) %4, ptr noundef nonnull @__PRETTY_FUNCTION__._ZN5faiss14IndexNNDescent5trainElPKf, ptr noundef nonnull @.str.2, i32 noundef 126)
          to label %17 unwind label %20

17:                                               ; preds = %13
  invoke void @__cxa_throw(ptr nonnull %16, ptr nonnull @_ZTIN5faiss14FaissExceptionE, ptr nonnull @_ZN5faiss14FaissExceptionD2Ev) #16
          to label %28 unwind label %18

18:                                               ; preds = %17, %11, %7
  %19 = landingpad { ptr, i32 }
          cleanup
  br label %22

20:                                               ; preds = %13
  %21 = landingpad { ptr, i32 }
          cleanup
  call void @__cxa_free_exception(ptr %16) #8
  br label %22

22:                                               ; preds = %20, %18
  %.pn = phi { ptr, i32 } [ %19, %18 ], [ %21, %20 ]
  call void @_ZNSt7__cxx1112basic_stringIcSt11char_traitsIcESaIcEED1Ev(ptr noundef nonnull align 8 dereferenceable(32) %4) #8
  resume { ptr, i32 } %.pn

23:                                               ; preds = %3
  %24 = load ptr, ptr %6, align 8
  %25 = getelementptr inbounds i8, ptr %24, i64 16
  %26 = load ptr, ptr %25, align 8
  tail call void %26(ptr noundef nonnull align 8 dereferenceable(36) %6, i64 noundef %1, ptr noundef %2)
  %27 = getelementptr inbounds i8, ptr %0, i64 25
  store i8 1, ptr %27, align 1
  ret void

28:                                               ; preds = %17
  unreachable
}